target datalayout = "e-m:e-p270:32:32-p271:32:32-p272:64:64-i64:64-i128:128-f80:128-n8:16:32:64-S128"
target triple = "x86_64-pc-linux-gnu"

%struct.jv = type { i8, i8, i16, i32, %union.anon }
%union.anon = type { ptr }
%struct.jq_state = type { ptr, ptr, ptr, ptr, ptr, %struct.jv, %struct.stack, i32, i32, i32, %struct.jv, %struct.jv, i32, i32, i32, i32, i32, %struct.jv, %struct.jv, %struct.jv, ptr, ptr, ptr, ptr, ptr, ptr }
%struct.stack = type { ptr, i32, i32 }

@stderr = external global ptr, align 8

; Function Attrs: nounwind uwtable
define dso_local void @jq_set_error_cb(ptr noundef %0, ptr noundef %1, ptr noundef %2) #0 {
  %4 = alloca ptr, align 8
  %5 = alloca ptr, align 8
  %6 = alloca ptr, align 8
  store ptr %0, ptr %4, align 8, !tbaa !4
  store ptr %1, ptr %5, align 8, !tbaa !17
  store ptr %2, ptr %6, align 8, !tbaa !17
  %7 = load ptr, ptr %5, align 8, !tbaa !17
  %8 = icmp eq ptr %7, null
  br i1 %8, label %9, label %15

9:                                                ; preds = %3
  %10 = load ptr, ptr %4, align 8, !tbaa !4
  %11 = getelementptr inbounds nuw %struct.jq_state, ptr %10, i32 0, i32 3
  store ptr @default_err_cb, ptr %11, align 8, !tbaa !55
  %12 = load ptr, ptr @stderr, align 8, !tbaa !88
  %13 = load ptr, ptr %4, align 8, !tbaa !4
  %14 = getelementptr inbounds nuw %struct.jq_state, ptr %13, i32 0, i32 4
  store ptr %12, ptr %14, align 8, !tbaa !56
  br label %22

15:                                               ; preds = %3
  %16 = load ptr, ptr %5, align 8, !tbaa !17
  %17 = load ptr, ptr %4, align 8, !tbaa !4
  %18 = getelementptr inbounds nuw %struct.jq_state, ptr %17, i32 0, i32 3
  store ptr %16, ptr %18, align 8, !tbaa !55
  %19 = load ptr, ptr %6, align 8, !tbaa !17
  %20 = load ptr, ptr %4, align 8, !tbaa !4
  %21 = getelementptr inbounds nuw %struct.jq_state, ptr %20, i32 0, i32 4
  store ptr %19, ptr %21, align 8, !tbaa !56
  br label %22

22:                                               ; preds = %15, %9
  ret void
}