; Function Attrs: mustprogress nofree norecurse nosync nounwind willreturn memory(read, argmem: write, inaccessiblemem: none) uwtable
define dso_local void @jq_set_error_cb(ptr noundef writeonly captures(none) initializes((24, 40)) %0, ptr noundef %1, ptr noundef %2) local_unnamed_addr #6 {
  %4 = icmp eq ptr %1, null
  %5 = load ptr, ptr @stderr, align 8
  %spec.select = select i1 %4, ptr @default_err_cb, ptr %1
  %spec.select8 = select i1 %4, ptr %5, ptr %2
  %6 = getelementptr inbounds nuw i8, ptr %0, i64 24
  store ptr %spec.select, ptr %6, align 8, !tbaa !41
  %7 = getelementptr inbounds nuw i8, ptr %0, i64 32
  store ptr %spec.select8, ptr %7, align 8, !tbaa !42
  ret void
}